; Function Attrs: mustprogress uwtable
define void @_ZN6casadi10Integrator16get_sparsity_outEx(ptr dead_on_unwind noalias writable sret(%"class.casadi::Sparsity") align 8 %0, ptr nocapture noundef nonnull readonly align 8 dereferenceable(1905) %1, i64 noundef %2) unnamed_addr #3 align 2 {
  %4 = trunc i64 %2 to i32
  switch i32 %4, label %95 [
    i32 0, label %5
    i32 1, label %20
    i32 2, label %35
    i32 3, label %50
    i32 4, label %59
    i32 5, label %68
    i32 6, label %77
  ]

5:                                                ; preds = %3
  %6 = getelementptr inbounds i8, ptr %1, i64 1624
  %7 = load i64, ptr %6, align 8
  %8 = getelementptr inbounds i8, ptr %1, i64 1552
  %9 = getelementptr inbounds i8, ptr %1, i64 1560
  %10 = load ptr, ptr %9, align 8
  %11 = load ptr, ptr %8, align 8
  %12 = ptrtoint ptr %10 to i64
  %13 = ptrtoint ptr %11 to i64
  %14 = sub i64 %12, %13
  %15 = ashr exact i64 %14, 3
  %16 = getelementptr inbounds i8, ptr %1, i64 1576
  %17 = load i64, ptr %16, align 8
  %18 = add nsw i64 %17, 1
  %19 = mul nsw i64 %15, %18
  tail call void @_ZN6casadi8Sparsity5denseExx(ptr dead_on_unwind writable sret(%"class.casadi::Sparsity") align 8 %0, i64 noundef %7, i64 noundef %19)
  br label %96

20:                                               ; preds = %3
  %21 = getelementptr inbounds i8, ptr %1, i64 1632
  %22 = load i64, ptr %21, align 8
  %23 = getelementptr inbounds i8, ptr %1, i64 1552
  %24 = getelementptr inbounds i8, ptr %1, i64 1560
  %25 = load ptr, ptr %24, align 8
  %26 = load ptr, ptr %23, align 8
  %27 = ptrtoint ptr %25 to i64
  %28 = ptrtoint ptr %26 to i64
  %29 = sub i64 %27, %28
  %30 = ashr exact i64 %29, 3
  %31 = getelementptr inbounds i8, ptr %1, i64 1576
  %32 = load i64, ptr %31, align 8
  %33 = add nsw i64 %32, 1
  %34 = mul nsw i64 %30, %33
  tail call void @_ZN6casadi8Sparsity5denseExx(ptr dead_on_unwind writable sret(%"class.casadi::Sparsity") align 8 %0, i64 noundef %22, i64 noundef %34)
  br label %96

35:                                               ; preds = %3
  %36 = getelementptr inbounds i8, ptr %1, i64 1640
  %37 = load i64, ptr %36, align 8
  %38 = getelementptr inbounds i8, ptr %1, i64 1552
  %39 = getelementptr inbounds i8, ptr %1, i64 1560
  %40 = load ptr, ptr %39, align 8
  %41 = load ptr, ptr %38, align 8
  %42 = ptrtoint ptr %40 to i64
  %43 = ptrtoint ptr %41 to i64
  %44 = sub i64 %42, %43
  %45 = ashr exact i64 %44, 3
  %46 = getelementptr inbounds i8, ptr %1, i64 1576
  %47 = load i64, ptr %46, align 8
  %48 = add nsw i64 %47, 1
  %49 = mul nsw i64 %45, %48
  tail call void @_ZN6casadi8Sparsity5denseExx(ptr dead_on_unwind writable sret(%"class.casadi::Sparsity") align 8 %0, i64 noundef %37, i64 noundef %49)
  br label %96

50:                                               ; preds = %3
  %51 = getelementptr inbounds i8, ptr %1, i64 1680
  %52 = load i64, ptr %51, align 8
  %53 = getelementptr inbounds i8, ptr %1, i64 1584
  %54 = load i64, ptr %53, align 8
  %55 = getelementptr inbounds i8, ptr %1, i64 1576
  %56 = load i64, ptr %55, align 8
  %57 = add nsw i64 %56, 1
  %58 = mul nsw i64 %57, %54
  tail call void @_ZN6casadi8Sparsity5denseExx(ptr dead_on_unwind writable sret(%"class.casadi::Sparsity") align 8 %0, i64 noundef %52, i64 noundef %58)
  br label %96

59:                                               ; preds = %3
  %60 = getelementptr inbounds i8, ptr %1, i64 1688
  %61 = load i64, ptr %60, align 8
  %62 = getelementptr inbounds i8, ptr %1, i64 1584
  %63 = load i64, ptr %62, align 8
  %64 = getelementptr inbounds i8, ptr %1, i64 1576
  %65 = load i64, ptr %64, align 8
  %66 = add nsw i64 %65, 1
  %67 = mul nsw i64 %66, %63
  tail call void @_ZN6casadi8SparsityC1Exx(ptr noundef nonnull align 8 dereferenceable(8) %0, i64 noundef %61, i64 noundef %67)
  br label %96

68:                                               ; preds = %3
  %69 = getelementptr inbounds i8, ptr %1, i64 1696
  %70 = load i64, ptr %69, align 8
  %71 = getelementptr inbounds i8, ptr %1, i64 1584
  %72 = load i64, ptr %71, align 8
  %73 = getelementptr inbounds i8, ptr %1, i64 1576
  %74 = load i64, ptr %73, align 8
  %75 = add nsw i64 %74, 1
  %76 = mul nsw i64 %75, %72
  tail call void @_ZN6casadi8Sparsity5denseExx(ptr dead_on_unwind writable sret(%"class.casadi::Sparsity") align 8 %0, i64 noundef %70, i64 noundef %76)
  br label %96

77:                                               ; preds = %3
  %78 = getelementptr inbounds i8, ptr %1, i64 1704
  %79 = load i64, ptr %78, align 8
  %80 = getelementptr inbounds i8, ptr %1, i64 1584
  %81 = load i64, ptr %80, align 8
  %82 = getelementptr inbounds i8, ptr %1, i64 1576
  %83 = load i64, ptr %82, align 8
  %84 = add nsw i64 %83, 1
  %85 = mul nsw i64 %84, %81
  %86 = getelementptr inbounds i8, ptr %1, i64 1552
  %87 = getelementptr inbounds i8, ptr %1, i64 1560
  %88 = load ptr, ptr %87, align 8
  %89 = load ptr, ptr %86, align 8
  %90 = ptrtoint ptr %88 to i64
  %91 = ptrtoint ptr %89 to i64
  %92 = sub i64 %90, %91
  %93 = ashr exact i64 %92, 3
  %94 = mul nsw i64 %85, %93
  tail call void @_ZN6casadi8Sparsity5denseExx(ptr dead_on_unwind writable sret(%"class.casadi::Sparsity") align 8 %0, i64 noundef %79, i64 noundef %94)
  br label %96

95:                                               ; preds = %3
  tail call void @_ZN6casadi8SparsityC1Ex(ptr noundef nonnull align 8 dereferenceable(8) %0, i64 noundef 0)
  br label %96

96:                                               ; preds = %95, %77, %68, %59, %50, %35, %20, %5
  ret void
}